Certificate:
    Data:
        Version: 3 (0x2)
        Serial Number: 1 (0x1)
    Signature Algorithm: ecdsa-with-SHA512
        Issuer: C=US, CN=dev.knollit.com, O=knollit
        Validity
            Not Before: Feb 29 01:42:42 2016 GMT
            Not After : Feb 26 01:42:42 2026 GMT
        Subject: O=knollit, CN=dev.knollit.com
        Subject Public Key Info:
            Public Key Algorithm: id-ecPublicKey
                Public-Key: (521 bit)
                pub: 
                    04:00:74:88:c2:24:fd:d9:37:48:12:0c:20:42:5b:
                    6a:9d:69:45:46:cc:af:6a:2f:d8:db:8f:c9:c7:17:
                    d4:fb:86:b2:d4:ce:7a:37:85:5a:3d:bb:05:30:c4:
                    e4:10:d5:c7:b2:39:50:6c:0a:a2:ec:c6:86:3c:f9:
                    73:ac:18:83:e2:ad:ac:00:79:b8:41:1f:bf:32:26:
                    27:01:20:80:80:a4:a7:87:58:2b:2b:8d:b4:08:d8:
                    86:1c:4d:96:da:58:d3:1d:13:81:88:0a:ae:ee:e9:
                    9d:52:e7:3b:b3:cd:a2:62:ba:c4:02:65:b9:2f:6c:
                    3a:d4:b4:87:29:9e:b0:46:1e:b2:8f:0a:5c
                ASN1 OID: secp521r1
                NIST CURVE: P-521
        X509v3 extensions:
            X509v3 Basic Constraints: 
                CA:FALSE
            X509v3 Extended Key Usage: 
                TLS Web Client Authentication, TLS Web Server Authentication
            X509v3 Key Usage: 
                Digital Signature, Key Encipherment
            X509v3 Subject Alternative Name: 
                IP Address:127.0.0.1
    Signature Algorithm: ecdsa-with-SHA512
         30:81:88:02:42:00:8f:b9:cb:22:08:fc:79:bb:f8:51:bb:77:
         b8:9e:72:5b:46:a6:15:a1:13:09:d2:1e:82:6e:c1:a3:9b:50:
         fd:01:dc:62:7a:02:4c:6d:31:85:45:2c:10:91:0d:e2:ef:0a:
         4d:6f:45:95:28:7d:b5:72:9a:1c:fb:3c:d3:db:77:71:6e:02:
         42:00:b7:df:8b:d2:2a:10:8c:6f:fc:ad:30:90:cd:b3:19:76:
         74:c0:3e:dd:27:61:d2:24:ef:23:c0:4b:47:07:2d:f9:c6:9e:
         66:8f:b8:b2:27:d5:28:5a:17:54:98:0c:a5:c6:96:6d:90:bf:
         e6:99:97:d6:04:27:0a:10:e9:c9:18:1c:1f
-----BEGIN CERTIFICATE-----
MIICJjCCAYegAwIBAgIBATAKBggqhkjOPQQDBDA5MQswCQYDVQQGEwJVUzEYMBYG
A1UEAwwPZGV2Lmtub2xsaXQuY29tMRAwDgYDVQQKDAdrbm9sbGl0MB4XDTE2MDIy
OTAxNDI0MloXDTI2MDIyNjAxNDI0MlowLDEQMA4GA1UECgwHa25vbGxpdDEYMBYG
A1UEAwwPZGV2Lmtub2xsaXQuY29tMIGbMBAGByqGSM49AgEGBSuBBAAjA4GGAAQA
dIjCJP3ZN0gSDCBCW2qdaUVGzK9qL9jbj8nHF9T7hrLUzno3hVo9uwUwxOQQ1cey
OVBsCqLsxoY8+XOsGIPirawAebhBH78yJicBIICApKeHWCsrjbQI2IYcTZbaWNMd
E4GICq7u6Z1S5zuzzaJiusQCZbkvbDrUtIcpnrBGHrKPClyjSjBIMAkGA1UdEwQC
MAAwHQYDVR0lBBYwFAYIKwYBBQUHAwIGCCsGAQUFBwMBMAsGA1UdDwQEAwIFoDAP
BgNVHREECDAGhwR/AAABMAoGCCqGSM49BAMEA4GMADCBiAJCAI+5yyII/Hm7+FG7
d7iecltGphWhEwnSHoJuwaObUP0B3GJ6AkxtMYVFLBCRDeLvCk1vRZUofbVymhz7
PNPbd3FuAkIAt9+L0ioQjG/8rTCQzbMZdnTAPt0nYdIk7yPAS0cHLfnGnmaPuLIn
1ShaF1SYDKXGlm2Qv+aZl9YEJwoQ6ckYHB8=
-----END CERTIFICATE-----
