Certificate:
    Data:
        Version: 3 (0x2)
        Serial Number: 13 (0xd)
        Signature Algorithm: ecdsa-with-SHA1
        Issuer: C=US, CN=dev.knollit.com, O=knollit
        Validity
            Not Before: Jan 25 00:39:55 2016 GMT
            Not After : Jan 22 00:39:55 2026 GMT
        Subject: O=knollit, CN=server.knollit.com
        Subject Public Key Info:
            Public Key Algorithm: id-ecPublicKey
            EC Public Key:
                pub: 
                    04:00:d5:1a:40:f1:28:09:82:45:37:f3:88:2c:e2:
                    16:76:61:19:83:93:78:46:d1:4e:af:cf:be:22:99:
                    26:fa:9e:e4:b3:f2:24:a4:5e:2a:f4:b8:a5:76:35:
                    9c:43:b9:c2:fd:af:bb:51:67:f5:ce:15:3d:68:8f:
                    ca:20:49:96:81:78:03:01:74:8f:36:db:ca:b9:53:
                    14:bf:60:8f:c4:e8:70:b0:90:af:f9:87:90:92:15:
                    66:13:e5:4d:ce:42:58:0b:74:00:63:31:0d:5a:59:
                    66:b0:d6:67:ba:dd:0b:46:80:23:f1:ac:d6:82:34:
                    39:65:48:28:d6:f1:be:c5:b7:c9:52:a7:50
                ASN1 OID: secp521r1
        X509v3 extensions:
            X509v3 Basic Constraints: 
                CA:FALSE
            X509v3 Extended Key Usage: 
                TLS Web Client Authentication, TLS Web Server Authentication
            X509v3 Key Usage: 
                Digital Signature, Key Encipherment
            X509v3 Subject Alternative Name: 
                IP Address:127.0.0.1
    Signature Algorithm: ecdsa-with-SHA1
        30:81:88:02:42:01:e2:63:24:df:f4:c3:38:a2:70:11:01:6d:
        ab:42:a4:2d:42:aa:c2:82:69:01:f8:aa:02:37:07:d0:28:17:
        3d:69:e7:70:f0:71:1e:6d:21:70:2b:06:e2:7e:86:bd:36:99:
        fa:c7:ee:1c:93:7e:e6:6a:f3:ca:4b:fa:3e:57:21:4b:f3:02:
        42:00:d1:ad:aa:89:79:b0:cc:88:99:68:da:38:0f:e8:c9:da:
        c3:a9:53:54:f8:19:0f:af:66:c0:b5:37:10:54:56:72:8d:03:
        03:98:23:a8:be:d2:79:8d:7b:5f:72:84:8f:cd:0e:e7:fd:cc:
        5d:76:73:4a:30:a8:a1:56:c1:cb:08:41:dc
-----BEGIN CERTIFICATE-----
MIICJzCCAYmgAwIBAgIBDTAJBgcqhkjOPQQBMDkxCzAJBgNVBAYTAlVTMRgwFgYD
VQQDDA9kZXYua25vbGxpdC5jb20xEDAOBgNVBAoMB2tub2xsaXQwHhcNMTYwMTI1
MDAzOTU1WhcNMjYwMTIyMDAzOTU1WjAvMRAwDgYDVQQKDAdrbm9sbGl0MRswGQYD
VQQDDBJzZXJ2ZXIua25vbGxpdC5jb20wgZswEAYHKoZIzj0CAQYFK4EEACMDgYYA
BADVGkDxKAmCRTfziCziFnZhGYOTeEbRTq/PviKZJvqe5LPyJKReKvS4pXY1nEO5
wv2vu1Fn9c4VPWiPyiBJloF4AwF0jzbbyrlTFL9gj8TocLCQr/mHkJIVZhPlTc5C
WAt0AGMxDVpZZrDWZ7rdC0aAI/Gs1oI0OWVIKNbxvsW3yVKnUKNKMEgwCQYDVR0T
BAIwADAdBgNVHSUEFjAUBggrBgEFBQcDAgYIKwYBBQUHAwEwCwYDVR0PBAQDAgWg
MA8GA1UdEQQIMAaHBH8AAAEwCQYHKoZIzj0EAQOBjAAwgYgCQgHiYyTf9MM4onAR
AW2rQqQtQqrCgmkB+KoCNwfQKBc9aedw8HEebSFwKwbifoa9Npn6x+4ck37mavPK
S/o+VyFL8wJCANGtqol5sMyImWjaOA/oydrDqVNU+BkPr2bAtTcQVFZyjQMDmCOo
vtJ5jXtfcoSPzQ7n/cxddnNKMKihVsHLCEHc
-----END CERTIFICATE-----
