Certificate:
    Data:
        Version: 3 (0x2)
        Serial Number: 9 (0x9)
        Signature Algorithm: sha512WithRSAEncryption
        Issuer: C=US, CN=ca.api-proj.com, O=api-proj
        Validity
            Not Before: Sep 29 00:40:25 2015 GMT
            Not After : Sep 26 00:40:25 2025 GMT
        Subject: O=api-proj, CN=organization7.api-proj.com
        Subject Public Key Info:
            Public Key Algorithm: id-ecPublicKey
            EC Public Key:
                pub: 
                    04:01:79:b2:51:96:d6:2d:e4:fe:b7:5c:29:5a:d6:
                    8a:de:1c:2b:32:1b:e0:f0:9a:a7:68:6c:bc:ff:08:
                    58:3e:06:39:ed:dd:13:10:ce:a4:e3:8b:de:2a:0b:
                    55:f2:c4:85:91:24:15:4a:0f:a2:75:c2:91:98:e3:
                    6a:fb:47:e3:88:ad:53:01:59:30:e5:78:37:24:ff:
                    e2:8d:5f:ce:35:c5:83:a0:97:0f:00:c2:1d:c8:83:
                    31:bb:60:a1:9f:17:cc:57:fe:d5:05:80:8c:af:71:
                    be:d7:49:b3:8b:d7:be:9b:74:43:12:a7:27:9e:91:
                    dd:c4:e4:5a:1c:46:93:da:1d:cb:3f:5b:a9
                ASN1 OID: secp521r1
        X509v3 extensions:
            X509v3 Basic Constraints: 
                CA:FALSE
            X509v3 Extended Key Usage: 
                TLS Web Client Authentication, TLS Web Server Authentication
            X509v3 Key Usage: 
                Digital Signature, Key Encipherment
            X509v3 Subject Alternative Name: 
                IP Address:127.0.0.1
    Signature Algorithm: sha512WithRSAEncryption
        2f:47:ce:c5:37:90:17:ae:b6:db:c7:f6:98:b3:bf:d0:e8:c0:
        f9:45:3d:74:61:4d:ed:d6:b3:38:8e:a9:af:f7:74:5c:e2:18:
        1f:af:22:41:5f:62:81:1f:8c:f4:d5:b9:e9:b0:c0:df:7b:70:
        e3:2b:53:03:ce:2a:55:40:54:f8:a0:da:98:ec:8d:1e:c7:6c:
        dc:e9:eb:45:71:14:b1:3b:58:0c:6b:2e:d6:03:56:b1:91:a9:
        71:7e:37:98:6e:00:bd:41:22:12:08:58:41:e0:d8:2f:b0:9d:
        9c:34:e9:98:11:27:54:dc:2e:df:6c:e6:bc:77:55:fe:08:33:
        e6:f1:2b:a7:0e:12:08:7d:fd:f9:08:4e:48:1f:3f:d1:a1:93:
        2c:d8:5b:7f:21:d4:00:c0:1b:e5:e5:d2:99:d0:8b:ae:6e:b3:
        e1:05:00:a7:59:7a:44:6b:3f:be:5c:8c:ef:8e:96:aa:5d:dc:
        4d:57:19:df:86:39:52:79:08:4c:13:2f:6f:05:7e:b4:f6:7c:
        01:e6:1f:ca:a4:66:a5:26:e1:ed:f0:16:5e:44:8f:d2:e1:7d:
        95:23:66:7e:f8:44:f0:d4:bb:66:da:2d:d1:9a:5c:fb:fe:1a:
        bc:03:bd:51:83:20:a3:e0:3e:fa:a7:0e:e3:d9:aa:8f:3c:1c:
        c6:64:f1:90:4b:81:39:0c:15:31:6c:d4:5a:52:81:22:a2:37:
        48:73:0a:a5:f0:d5:df:97:8f:d0:ed:21:2d:1d:83:d4:ca:b9:
        24:73:60:c8:4c:a0:f8:be:8c:38:2b:5f:49:f0:c8:b5:49:29:
        e3:45:74:98:ce:90:4a:55:0c:b2:b5:fe:8c:1b:9f:95:09:ee:
        21:2b:26:61:8d:65:ec:22:52:0d:e6:51:2e:a6:29:31:f7:15:
        3e:2c:3b:8a:7a:24:9a:2c:e6:42:a4:f7:b8:16:d2:d7:75:d2:
        d5:81:f5:a7:23:01:4f:ca:11:3b:22:ef:69:52:5c:62:f7:dd:
        af:77:26:df:b0:96:ab:ea:18:83:2a:34:f8:1c:75:7a:86:81:
        c9:ce:a2:b6:83:fe:64:90:78:30:61:0d:79:96:4c:8d:e1:05:
        ac:a3:59:77:99:35:56:a3:cf:56:a4:6c:8d:8c:df:54:4e:41:
        16:63:90:61:82:2e:ee:a8:d6:de:de:bf:1b:c9:e1:d3:4a:ec:
        58:7d:38:83:9f:95:84:09:b3:ee:ab:06:a1:eb:60:b1:24:8a:
        7b:21:76:68:30:26:5a:ae:62:d5:00:a6:d8:df:e2:19:41:64:
        76:f8:54:f8:fe:2e:f7:15:18:53:6f:e2:6b:1c:bf:b7:fc:ca:
        79:9e:08:3a:f7:36:6e:bd
-----BEGIN CERTIFICATE-----
MIIDrzCCAZegAwIBAgIBCTANBgkqhkiG9w0BAQ0FADA6MQswCQYDVQQGEwJVUzEY
MBYGA1UEAwwPY2EuYXBpLXByb2ouY29tMREwDwYDVQQKDAhhcGktcHJvajAeFw0x
NTA5MjkwMDQwMjVaFw0yNTA5MjYwMDQwMjVaMDgxETAPBgNVBAoMCGFwaS1wcm9q
MSMwIQYDVQQDDBpvcmdhbml6YXRpb243LmFwaS1wcm9qLmNvbTCBmzAQBgcqhkjO
PQIBBgUrgQQAIwOBhgAEAXmyUZbWLeT+t1wpWtaK3hwrMhvg8JqnaGy8/whYPgY5
7d0TEM6k44veKgtV8sSFkSQVSg+idcKRmONq+0fjiK1TAVkw5Xg3JP/ijV/ONcWD
oJcPAMIdyIMxu2ChnxfMV/7VBYCMr3G+10mzi9e+m3RDEqcnnpHdxORaHEaT2h3L
P1upo0owSDAJBgNVHRMEAjAAMB0GA1UdJQQWMBQGCCsGAQUFBwMCBggrBgEFBQcD
ATALBgNVHQ8EBAMCBaAwDwYDVR0RBAgwBocEfwAAATANBgkqhkiG9w0BAQ0FAAOC
AgEAL0fOxTeQF66228f2mLO/0OjA+UU9dGFN7dazOI6pr/d0XOIYH68iQV9igR+M
9NW56bDA33tw4ytTA84qVUBU+KDamOyNHsds3OnrRXEUsTtYDGsu1gNWsZGpcX43
mG4AvUEiEghYQeDYL7CdnDTpmBEnVNwu32zmvHdV/ggz5vErpw4SCH39+QhOSB8/
0aGTLNhbfyHUAMAb5eXSmdCLrm6z4QUAp1l6RGs/vlyM746Wql3cTVcZ34Y5UnkI
TBMvbwV+tPZ8AeYfyqRmpSbh7fAWXkSP0uF9lSNmfvhE8NS7Ztot0Zpc+/4avAO9
UYMgo+A++qcO49mqjzwcxmTxkEuBOQwVMWzUWlKBIqI3SHMKpfDV35eP0O0hLR2D
1Mq5JHNgyEyg+L6MOCtfSfDItUkp40V0mM6QSlUMsrX+jBuflQnuISsmYY1l7CJS
DeZRLqYpMfcVPiw7inokmizmQqT3uBbS13XS1YH1pyMBT8oROyLvaVJcYvfdr3cm
37CWq+oYgyo0+Bx1eoaByc6itoP+ZJB4MGENeZZMjeEFrKNZd5k1VqPPVqRsjYzf
VE5BFmOQYYIu7qjW3t6/G8nh00rsWH04g5+VhAmz7qsGoetgsSSKeyF2aDAmWq5i
1QCm2N/iGUFkdvhU+P4u9xUYU2/iaxy/t/zKeZ4IOvc2br0=
-----END CERTIFICATE-----
