Certificate:
    Data:
        Version: 3 (0x2)
        Serial Number: 11 (0xb)
        Signature Algorithm: ecdsa-with-SHA1
        Issuer: C=US, CN=ca.test.com, O=api-proj
        Validity
            Not Before: Oct  2 00:39:40 2015 GMT
            Not After : Sep 29 00:39:40 2025 GMT
        Subject: O=api-proj, CN=server.test.com
        Subject Public Key Info:
            Public Key Algorithm: id-ecPublicKey
            EC Public Key:
                pub: 
                    04:01:05:af:cb:0c:e6:90:e6:07:06:c4:7c:2a:20:
                    63:dc:40:d5:ed:a5:ee:b0:4a:24:70:c7:17:96:b6:
                    c4:c8:e2:73:cf:bb:ae:01:b2:a4:6e:3d:4c:ce:e5:
                    89:3e:39:d9:69:11:1b:18:6a:c1:49:63:d8:db:21:
                    38:bf:1c:e9:68:6c:bf:01:eb:9c:c2:ae:6b:87:81:
                    25:3e:12:b9:76:82:23:b2:45:57:2b:5d:e9:a1:63:
                    0b:92:3d:a8:b9:ac:c8:0d:fb:27:ae:8e:97:0e:a3:
                    97:3c:4a:e0:bf:5c:1f:28:1b:0b:d4:a9:9c:55:bc:
                    b9:03:7c:7f:b5:47:ef:0a:97:59:a6:9a:5d
                ASN1 OID: secp521r1
        X509v3 extensions:
            X509v3 Basic Constraints: 
                CA:FALSE
            X509v3 Extended Key Usage: 
                TLS Web Client Authentication, TLS Web Server Authentication
            X509v3 Key Usage: 
                Digital Signature, Key Encipherment
            X509v3 Subject Alternative Name: 
                IP Address:127.0.0.1
    Signature Algorithm: ecdsa-with-SHA1
        30:81:87:02:42:00:a5:a6:24:cc:eb:31:76:50:d4:b1:ad:e2:
        30:18:40:37:7d:2b:a6:6c:8d:82:ca:17:43:b7:af:21:cc:3f:
        73:02:8e:4e:8e:35:39:09:c6:33:be:c4:94:d5:1e:82:94:11:
        e8:be:18:4b:d5:b8:e8:37:fc:45:e5:02:54:ec:81:31:54:02:
        41:72:a5:d0:5e:7e:4b:86:7c:4f:3e:06:ff:07:2c:10:da:f2:
        73:40:84:e1:89:c0:ff:e1:ee:cc:23:c9:bc:3a:b8:bd:f6:49:
        c9:69:f6:20:3a:18:d6:1b:07:32:6d:16:cc:4d:5f:07:07:85:
        04:56:0c:c5:58:21:43:fc:04:60:fc:1f
-----BEGIN CERTIFICATE-----
MIICITCCAYSgAwIBAgIBCzAJBgcqhkjOPQQBMDYxCzAJBgNVBAYTAlVTMRQwEgYD
VQQDDAtjYS50ZXN0LmNvbTERMA8GA1UECgwIYXBpLXByb2owHhcNMTUxMDAyMDAz
OTQwWhcNMjUwOTI5MDAzOTQwWjAtMREwDwYDVQQKDAhhcGktcHJvajEYMBYGA1UE
AwwPc2VydmVyLnRlc3QuY29tMIGbMBAGByqGSM49AgEGBSuBBAAjA4GGAAQBBa/L
DOaQ5gcGxHwqIGPcQNXtpe6wSiRwxxeWtsTI4nPPu64BsqRuPUzO5Yk+OdlpERsY
asFJY9jbITi/HOlobL8B65zCrmuHgSU+Erl2giOyRVcrXemhYwuSPai5rMgN+yeu
jpcOo5c8SuC/XB8oGwvUqZxVvLkDfH+1R+8Kl1mmml2jSjBIMAkGA1UdEwQCMAAw
HQYDVR0lBBYwFAYIKwYBBQUHAwIGCCsGAQUFBwMBMAsGA1UdDwQEAwIFoDAPBgNV
HREECDAGhwR/AAABMAkGByqGSM49BAEDgYsAMIGHAkIApaYkzOsxdlDUsa3iMBhA
N30rpmyNgsoXQ7evIcw/cwKOTo41OQnGM77ElNUegpQR6L4YS9W46Df8ReUCVOyB
MVQCQXKl0F5+S4Z8Tz4G/wcsENryc0CE4YnA/+HuzCPJvDq4vfZJyWn2IDoY1hsH
Mm0WzE1fBweFBFYMxVghQ/wEYPwf
-----END CERTIFICATE-----
